target datalayout = "e-m:e-p270:32:32-p271:32:32-p272:64:64-i64:64-i128:128-f80:128-n8:16:32:64-S128"
target triple = "x86_64-pc-linux-gnu"

%union.anon.1 = type { ptr }
%struct.OptionDef = type { ptr, i32, i32, %union.anon.0, ptr, ptr, %union.anon.1 }
%union.anon.0 = type { ptr }
%struct.SpecifierOptList = type { ptr, i32, ptr, i32 }
%struct.SpecifierOpt = type { ptr, %struct.StreamSpecifier, %union.anon }
%struct.StreamSpecifier = type { i32, i32, i64, i32, i8, i8, i32, ptr, ptr, ptr }
%union.anon = type { ptr }
%struct.AVStream = type { ptr, i32, i32, ptr, ptr, %struct.AVRational, i64, i64, i64, i32, i32, %struct.AVRational, ptr, %struct.AVRational, %struct.AVPacket, i32, %struct.AVRational, i32 }
%struct.AVPacket = type { ptr, i64, i64, ptr, i32, i32, i32, ptr, i32, i64, i64, ptr, ptr, %struct.AVRational }
%struct.AVRational = type { i32, i32 }

@.str = private unnamed_addr constant [30 x i8] c"Assertion %s failed at %s:%d\0A\00", align 1
@.str.2 = private unnamed_addr constant [21 x i8] c"fftools/ffmpeg_opt.c\00", align 1
@.str.68 = private unnamed_addr constant [1 x i8] zeroinitializer, align 1
@.str.503 = private unnamed_addr constant [36 x i8] c"(type == sol->type) || !sol->nb_opt\00", align 1
@.str.504 = private unnamed_addr constant [4 x i8] c"-%s\00", align 1
@.str.505 = private unnamed_addr constant [5 x i8] c"/-%s\00", align 1
@.str.506 = private unnamed_addr constant [3 x i8] c"%d\00", align 1
@.str.507 = private unnamed_addr constant [4 x i8] c"%ld\00", align 1
@.str.508 = private unnamed_addr constant [3 x i8] c"%f\00", align 1
@.str.509 = private unnamed_addr constant [2 x i8] c"0\00", align 1
@.str.510 = private unnamed_addr constant [94 x i8] c"Multiple %s options specified for stream %d, only the last option '-%s%s%s %s' will be used.\0A\00", align 1
@.str.511 = private unnamed_addr constant [2 x i8] c":\00", align 1

; Function Attrs: nounwind uwtable
define internal i32 @opt_match_per_stream(ptr noundef %0, i32 noundef %1, ptr noundef %2, ptr noundef %3, ptr noundef %4) #0 {
  %6 = alloca ptr, align 8
  %7 = alloca i32, align 4
  %8 = alloca ptr, align 8
  %9 = alloca ptr, align 8
  %10 = alloca ptr, align 8
  %11 = alloca i32, align 4
  %12 = alloca i32, align 4
  %13 = alloca i32, align 4
  %14 = alloca ptr, align 8
  %15 = alloca ptr, align 8
  %16 = alloca ptr, align 8
  %17 = alloca [128 x i8], align 16
  %18 = alloca [32 x i8], align 16
  %19 = alloca ptr, align 8
  %20 = alloca ptr, align 8
  %21 = alloca i32, align 4
  store ptr %0, ptr %6, align 8, !tbaa !26
  store i32 %1, ptr %7, align 4, !tbaa !16
  store ptr %2, ptr %8, align 8, !tbaa !4
  store ptr %3, ptr %9, align 8, !tbaa !27
  store ptr %4, ptr %10, align 8, !tbaa !29
  call void @llvm.lifetime.start.p0(i64 4, ptr %11) #12
  store i32 0, ptr %11, align 4, !tbaa !16
  call void @llvm.lifetime.start.p0(i64 4, ptr %12) #12
  store i32 -1, ptr %12, align 4, !tbaa !16
  br label %22

22:                                               ; preds = %5
  %23 = load i32, ptr %7, align 4, !tbaa !16
  %24 = load ptr, ptr %8, align 8, !tbaa !4
  %25 = getelementptr inbounds nuw %struct.SpecifierOptList, ptr %24, i32 0, i32 3
  %26 = load i32, ptr %25, align 8, !tbaa !15
  %27 = icmp eq i32 %23, %26
  br i1 %27, label %34, label %28

28:                                               ; preds = %22
  %29 = load ptr, ptr %8, align 8, !tbaa !4
  %30 = getelementptr inbounds nuw %struct.SpecifierOptList, ptr %29, i32 0, i32 1
  %31 = load i32, ptr %30, align 8, !tbaa !10
  %32 = icmp ne i32 %31, 0
  br i1 %32, label %33, label %34

33:                                               ; preds = %28
  call void (ptr, i32, ptr, ...) @av_log(ptr noundef null, i32 noundef 0, ptr noundef @.str, ptr noundef @.str.503, ptr noundef @.str.2, i32 noundef 186)
  call void @abort() #11
  unreachable

34:                                               ; preds = %28, %22
  br label %35

35:                                               ; preds = %34
  br label %36

36:                                               ; preds = %35
  call void @llvm.lifetime.start.p0(i64 4, ptr %13) #12
  store i32 0, ptr %13, align 4, !tbaa !16
  br label %37

37:                                               ; preds = %63, %36
  %38 = load i32, ptr %13, align 4, !tbaa !16
  %39 = load ptr, ptr %8, align 8, !tbaa !4
  %40 = getelementptr inbounds nuw %struct.SpecifierOptList, ptr %39, i32 0, i32 1
  %41 = load i32, ptr %40, align 8, !tbaa !10
  %42 = icmp slt i32 %38, %41
  br i1 %42, label %44, label %43

43:                                               ; preds = %37
  call void @llvm.lifetime.end.p0(i64 4, ptr %13) #12
  br label %66

44:                                               ; preds = %37
  call void @llvm.lifetime.start.p0(i64 8, ptr %14) #12
  %45 = load ptr, ptr %8, align 8, !tbaa !4
  %46 = getelementptr inbounds nuw %struct.SpecifierOptList, ptr %45, i32 0, i32 0
  %47 = load ptr, ptr %46, align 8, !tbaa !17
  %48 = load i32, ptr %13, align 4, !tbaa !16
  %49 = sext i32 %48 to i64
  %50 = getelementptr inbounds %struct.SpecifierOpt, ptr %47, i64 %49
  %51 = getelementptr inbounds nuw %struct.SpecifierOpt, ptr %50, i32 0, i32 1
  store ptr %51, ptr %14, align 8, !tbaa !34
  %52 = load ptr, ptr %14, align 8, !tbaa !34
  %53 = load ptr, ptr %9, align 8, !tbaa !27
  %54 = load ptr, ptr %10, align 8, !tbaa !29
  %55 = load ptr, ptr %6, align 8, !tbaa !26
  %56 = call i32 @stream_specifier_match(ptr noundef %52, ptr noundef %53, ptr noundef %54, ptr noundef %55)
  %57 = icmp ne i32 %56, 0
  br i1 %57, label %58, label %62

58:                                               ; preds = %44
  %59 = load i32, ptr %13, align 4, !tbaa !16
  store i32 %59, ptr %12, align 4, !tbaa !16
  %60 = load i32, ptr %11, align 4, !tbaa !16
  %61 = add nsw i32 %60, 1
  store i32 %61, ptr %11, align 4, !tbaa !16
  br label %62

62:                                               ; preds = %58, %44
  call void @llvm.lifetime.end.p0(i64 8, ptr %14) #12
  br label %63

63:                                               ; preds = %62
  %64 = load i32, ptr %13, align 4, !tbaa !16
  %65 = add nsw i32 %64, 1
  store i32 %65, ptr %13, align 4, !tbaa !16
  br label %37, !llvm.loop !36

66:                                               ; preds = %43
  %67 = load i32, ptr %11, align 4, !tbaa !16
  %68 = icmp sgt i32 %67, 1
  br i1 %68, label %69, label %197

69:                                               ; preds = %66
  %70 = load ptr, ptr %8, align 8, !tbaa !4
  %71 = getelementptr inbounds nuw %struct.SpecifierOptList, ptr %70, i32 0, i32 2
  %72 = load ptr, ptr %71, align 8, !tbaa !37
  %73 = icmp ne ptr %72, null
  br i1 %73, label %74, label %197

74:                                               ; preds = %69
  call void @llvm.lifetime.start.p0(i64 8, ptr %15) #12
  %75 = load ptr, ptr %8, align 8, !tbaa !4
  %76 = getelementptr inbounds nuw %struct.SpecifierOptList, ptr %75, i32 0, i32 0
  %77 = load ptr, ptr %76, align 8, !tbaa !17
  %78 = load i32, ptr %12, align 4, !tbaa !16
  %79 = sext i32 %78 to i64
  %80 = getelementptr inbounds %struct.SpecifierOpt, ptr %77, i64 %79
  store ptr %80, ptr %15, align 8, !tbaa !38
  call void @llvm.lifetime.start.p0(i64 8, ptr %16) #12
  %81 = load ptr, ptr %15, align 8, !tbaa !38
  %82 = getelementptr inbounds nuw %struct.SpecifierOpt, ptr %81, i32 0, i32 0
  %83 = load ptr, ptr %82, align 8, !tbaa !18
  %84 = icmp ne ptr %83, null
  br i1 %84, label %85, label %97

85:                                               ; preds = %74
  %86 = load ptr, ptr %15, align 8, !tbaa !38
  %87 = getelementptr inbounds nuw %struct.SpecifierOpt, ptr %86, i32 0, i32 0
  %88 = load ptr, ptr %87, align 8, !tbaa !18
  %89 = getelementptr inbounds i8, ptr %88, i64 0
  %90 = load i8, ptr %89, align 1, !tbaa !9
  %91 = sext i8 %90 to i32
  %92 = icmp ne i32 %91, 0
  br i1 %92, label %93, label %97

93:                                               ; preds = %85
  %94 = load ptr, ptr %15, align 8, !tbaa !38
  %95 = getelementptr inbounds nuw %struct.SpecifierOpt, ptr %94, i32 0, i32 0
  %96 = load ptr, ptr %95, align 8, !tbaa !18
  br label %98

97:                                               ; preds = %85, %74
  br label %98

98:                                               ; preds = %97, %93
  %99 = phi ptr [ %96, %93 ], [ @.str.68, %97 ]
  store ptr %99, ptr %16, align 8, !tbaa !23
  call void @llvm.lifetime.start.p0(i64 128, ptr %17) #12
  call void @llvm.memset.p0.i64(ptr align 16 %17, i8 0, i64 128, i1 false)
  call void @llvm.lifetime.start.p0(i64 32, ptr %18) #12
  call void @llvm.lifetime.start.p0(i64 8, ptr %19) #12
  %100 = getelementptr inbounds [32 x i8], ptr %18, i64 0, i64 0
  store ptr %100, ptr %19, align 8, !tbaa !23
  %101 = getelementptr inbounds [128 x i8], ptr %17, i64 0, i64 0
  %102 = load ptr, ptr %8, align 8, !tbaa !4
  %103 = getelementptr inbounds nuw %struct.SpecifierOptList, ptr %102, i32 0, i32 2
  %104 = load ptr, ptr %103, align 8, !tbaa !37
  %105 = getelementptr inbounds nuw %struct.OptionDef, ptr %104, i32 0, i32 0
  %106 = load ptr, ptr %105, align 8, !tbaa !39
  %107 = call i32 (ptr, i64, ptr, ...) @snprintf(ptr noundef %101, i64 noundef 128, ptr noundef @.str.504, ptr noundef %106) #12
  %108 = load ptr, ptr %8, align 8, !tbaa !4
  %109 = getelementptr inbounds nuw %struct.SpecifierOptList, ptr %108, i32 0, i32 2
  %110 = load ptr, ptr %109, align 8, !tbaa !37
  %111 = getelementptr inbounds nuw %struct.OptionDef, ptr %110, i32 0, i32 2
  %112 = load i32, ptr %111, align 4, !tbaa !41
  %113 = and i32 %112, 8192
  %114 = icmp ne i32 %113, 0
  br i1 %114, label %115, label %141

115:                                              ; preds = %98
  call void @llvm.lifetime.start.p0(i64 8, ptr %20) #12
  %116 = load ptr, ptr %8, align 8, !tbaa !4
  %117 = getelementptr inbounds nuw %struct.SpecifierOptList, ptr %116, i32 0, i32 2
  %118 = load ptr, ptr %117, align 8, !tbaa !37
  %119 = getelementptr inbounds nuw %struct.OptionDef, ptr %118, i32 0, i32 6
  %120 = load ptr, ptr %119, align 8, !tbaa !9
  store ptr %120, ptr %20, align 8, !tbaa !31
  call void @llvm.lifetime.start.p0(i64 4, ptr %21) #12
  store i32 0, ptr %21, align 4, !tbaa !16
  br label %121

121:                                              ; preds = %137, %115
  %122 = load ptr, ptr %20, align 8, !tbaa !31
  %123 = load i32, ptr %21, align 4, !tbaa !16
  %124 = sext i32 %123 to i64
  %125 = getelementptr inbounds ptr, ptr %122, i64 %124
  %126 = load ptr, ptr %125, align 8, !tbaa !23
  %127 = icmp ne ptr %126, null
  br i1 %127, label %129, label %128

128:                                              ; preds = %121
  call void @llvm.lifetime.end.p0(i64 4, ptr %21) #12
  br label %140

129:                                              ; preds = %121
  %130 = getelementptr inbounds [128 x i8], ptr %17, i64 0, i64 0
  %131 = load ptr, ptr %20, align 8, !tbaa !31
  %132 = load i32, ptr %21, align 4, !tbaa !16
  %133 = sext i32 %132 to i64
  %134 = getelementptr inbounds ptr, ptr %131, i64 %133
  %135 = load ptr, ptr %134, align 8, !tbaa !23
  %136 = call i64 (ptr, i64, ptr, ...) @av_strlcatf(ptr noundef %130, i64 noundef 128, ptr noundef @.str.505, ptr noundef %135)
  br label %137

137:                                              ; preds = %129
  %138 = load i32, ptr %21, align 4, !tbaa !16
  %139 = add nsw i32 %138, 1
  store i32 %139, ptr %21, align 4, !tbaa !16
  br label %121, !llvm.loop !42

140:                                              ; preds = %128
  call void @llvm.lifetime.end.p0(i64 8, ptr %20) #12
  br label %141

141:                                              ; preds = %140, %98
  %142 = load ptr, ptr %8, align 8, !tbaa !4
  %143 = getelementptr inbounds nuw %struct.SpecifierOptList, ptr %142, i32 0, i32 3
  %144 = load i32, ptr %143, align 8, !tbaa !15
  switch i32 %144, label %174 [
    i32 2, label %145
    i32 3, label %149
    i32 4, label %155
    i32 5, label %161
    i32 6, label %168
  ]

145:                                              ; preds = %141
  %146 = load ptr, ptr %15, align 8, !tbaa !38
  %147 = getelementptr inbounds nuw %struct.SpecifierOpt, ptr %146, i32 0, i32 2
  %148 = load ptr, ptr %147, align 8, !tbaa !9
  store ptr %148, ptr %19, align 8, !tbaa !23
  br label %178

149:                                              ; preds = %141
  %150 = getelementptr inbounds [32 x i8], ptr %18, i64 0, i64 0
  %151 = load ptr, ptr %15, align 8, !tbaa !38
  %152 = getelementptr inbounds nuw %struct.SpecifierOpt, ptr %151, i32 0, i32 2
  %153 = load i32, ptr %152, align 8, !tbaa !9
  %154 = call i32 (ptr, i64, ptr, ...) @snprintf(ptr noundef %150, i64 noundef 32, ptr noundef @.str.506, i32 noundef %153) #12
  br label %178

155:                                              ; preds = %141
  %156 = getelementptr inbounds [32 x i8], ptr %18, i64 0, i64 0
  %157 = load ptr, ptr %15, align 8, !tbaa !38
  %158 = getelementptr inbounds nuw %struct.SpecifierOpt, ptr %157, i32 0, i32 2
  %159 = load i64, ptr %158, align 8, !tbaa !9
  %160 = call i32 (ptr, i64, ptr, ...) @snprintf(ptr noundef %156, i64 noundef 32, ptr noundef @.str.507, i64 noundef %159) #12
  br label %178

161:                                              ; preds = %141
  %162 = getelementptr inbounds [32 x i8], ptr %18, i64 0, i64 0
  %163 = load ptr, ptr %15, align 8, !tbaa !38
  %164 = getelementptr inbounds nuw %struct.SpecifierOpt, ptr %163, i32 0, i32 2
  %165 = load float, ptr %164, align 8, !tbaa !9
  %166 = fpext nsz float %165 to double
  %167 = call i32 (ptr, i64, ptr, ...) @snprintf(ptr noundef %162, i64 noundef 32, ptr noundef @.str.508, double noundef %166) #12
  br label %178

168:                                              ; preds = %141
  %169 = getelementptr inbounds [32 x i8], ptr %18, i64 0, i64 0
  %170 = load ptr, ptr %15, align 8, !tbaa !38
  %171 = getelementptr inbounds nuw %struct.SpecifierOpt, ptr %170, i32 0, i32 2
  %172 = load double, ptr %171, align 8, !tbaa !9
  %173 = call i32 (ptr, i64, ptr, ...) @snprintf(ptr noundef %169, i64 noundef 32, ptr noundef @.str.508, double noundef %172) #12
  br label %178

174:                                              ; preds = %141
  br label %175

175:                                              ; preds = %174
  call void (ptr, i32, ptr, ...) @av_log(ptr noundef null, i32 noundef 0, ptr noundef @.str, ptr noundef @.str.509, ptr noundef @.str.2, i32 noundef 218)
  call void @abort() #11
  unreachable

176:                                              ; No predecessors!
  br label %177

177:                                              ; preds = %176
  br label %178

178:                                              ; preds = %177, %168, %161, %155, %149, %145
  %179 = load ptr, ptr %6, align 8, !tbaa !26
  %180 = getelementptr inbounds [128 x i8], ptr %17, i64 0, i64 0
  %181 = load ptr, ptr %10, align 8, !tbaa !29
  %182 = getelementptr inbounds nuw %struct.AVStream, ptr %181, i32 0, i32 1
  %183 = load i32, ptr %182, align 8, !tbaa !43
  %184 = load ptr, ptr %8, align 8, !tbaa !4
  %185 = getelementptr inbounds nuw %struct.SpecifierOptList, ptr %184, i32 0, i32 2
  %186 = load ptr, ptr %185, align 8, !tbaa !37
  %187 = getelementptr inbounds nuw %struct.OptionDef, ptr %186, i32 0, i32 0
  %188 = load ptr, ptr %187, align 8, !tbaa !39
  %189 = load ptr, ptr %16, align 8, !tbaa !23
  %190 = getelementptr inbounds i8, ptr %189, i64 0
  %191 = load i8, ptr %190, align 1, !tbaa !9
  %192 = sext i8 %191 to i32
  %193 = icmp ne i32 %192, 0
  %194 = select i1 %193, ptr @.str.511, ptr @.str.68
  %195 = load ptr, ptr %16, align 8, !tbaa !23
  %196 = load ptr, ptr %19, align 8, !tbaa !23
  call void (ptr, i32, ptr, ...) @av_log(ptr noundef %179, i32 noundef 24, ptr noundef @.str.510, ptr noundef %180, i32 noundef %183, ptr noundef %188, ptr noundef %194, ptr noundef %195, ptr noundef %196)
  call void @llvm.lifetime.end.p0(i64 8, ptr %19) #12
  call void @llvm.lifetime.end.p0(i64 32, ptr %18) #12
  call void @llvm.lifetime.end.p0(i64 128, ptr %17) #12
  call void @llvm.lifetime.end.p0(i64 8, ptr %16) #12
  call void @llvm.lifetime.end.p0(i64 8, ptr %15) #12
  br label %197

197:                                              ; preds = %178, %69, %66
  %198 = load i32, ptr %12, align 4, !tbaa !16
  %199 = add nsw i32 %198, 1
  call void @llvm.lifetime.end.p0(i64 4, ptr %12) #12
  call void @llvm.lifetime.end.p0(i64 4, ptr %11) #12
  ret i32 %199
}