; Function Attrs: nounwind uwtable
define internal fastcc range(i32 -2147483647, -2147483648) i32 @opt_match_per_stream(ptr noundef %0, i32 noundef range(i32 2, 7) %1, ptr noundef readonly captures(none) %2, ptr noundef %3, ptr noundef %4) unnamed_addr #0 {
  %6 = alloca [128 x i8], align 16
  %7 = alloca [32 x i8], align 16
  %8 = getelementptr inbounds nuw i8, ptr %2, i64 24
  %9 = load i32, ptr %8, align 8, !tbaa !12
  %10 = icmp eq i32 %1, %9
  %.phi.trans.insert = getelementptr inbounds nuw i8, ptr %2, i64 8
  %.pre = load i32, ptr %.phi.trans.insert, align 8, !tbaa !4
  br i1 %10, label %13, label %11

11:                                               ; preds = %5
  %.not = icmp eq i32 %.pre, 0
  br i1 %.not, label %._crit_edge.thread, label %12

12:                                               ; preds = %11
  tail call void (ptr, i32, ptr, ...) @av_log(ptr noundef null, i32 noundef 0, ptr noundef nonnull @.str, ptr noundef nonnull @.str.503, ptr noundef nonnull @.str.2, i32 noundef 186) #15
  tail call void @abort() #16
  unreachable

13:                                               ; preds = %5
  %14 = icmp sgt i32 %.pre, 0
  %15 = getelementptr inbounds nuw i8, ptr %2, i64 8
  br i1 %14, label %.lr.ph, label %._crit_edge.thread

._crit_edge:                                      ; preds = %.lr.ph
  %16 = icmp samesign ugt i32 %spec.select55, 1
  br i1 %16, label %25, label %._crit_edge.thread

.lr.ph:                                           ; preds = %13, %.lr.ph
  %indvars.iv = phi i64 [ %indvars.iv.next, %.lr.ph ], [ 0, %13 ]
  %.04159 = phi i32 [ %spec.select55, %.lr.ph ], [ 0, %13 ]
  %.04358 = phi i32 [ %spec.select, %.lr.ph ], [ -1, %13 ]
  %17 = load ptr, ptr %2, align 8, !tbaa !13
  %18 = getelementptr inbounds nuw %struct.SpecifierOpt, ptr %17, i64 %indvars.iv, i32 1
  %19 = tail call i32 @stream_specifier_match(ptr noundef nonnull %18, ptr noundef %3, ptr noundef %4, ptr noundef %0) #15
  %.not54 = icmp ne i32 %19, 0
  %20 = trunc nuw nsw i64 %indvars.iv to i32
  %spec.select = select i1 %.not54, i32 %20, i32 %.04358
  %21 = zext i1 %.not54 to i32
  %spec.select55 = add nuw nsw i32 %.04159, %21
  %indvars.iv.next = add nuw nsw i64 %indvars.iv, 1
  %22 = load i32, ptr %15, align 8, !tbaa !4
  %23 = sext i32 %22 to i64
  %24 = icmp slt i64 %indvars.iv.next, %23
  br i1 %24, label %.lr.ph, label %._crit_edge, !llvm.loop !23

25:                                               ; preds = %._crit_edge
  %26 = getelementptr inbounds nuw i8, ptr %2, i64 16
  %27 = load ptr, ptr %26, align 8, !tbaa !24
  %.not48 = icmp eq ptr %27, null
  br i1 %.not48, label %._crit_edge.thread, label %28

28:                                               ; preds = %25
  %29 = load ptr, ptr %2, align 8, !tbaa !13
  %30 = sext i32 %spec.select to i64
  %31 = getelementptr inbounds %struct.SpecifierOpt, ptr %29, i64 %30
  %32 = load ptr, ptr %31, align 8, !tbaa !14
  %.not49 = icmp eq ptr %32, null
  br i1 %.not49, label %35, label %33

33:                                               ; preds = %28
  %34 = load i8, ptr %32, align 1, !tbaa !19
  %.not50 = icmp eq i8 %34, 0
  %spec.select56 = select i1 %.not50, ptr @.str.68, ptr %32
  br label %35

35:                                               ; preds = %33, %28
  %36 = phi ptr [ @.str.68, %28 ], [ %spec.select56, %33 ]
  call void @llvm.lifetime.start.p0(i64 128, ptr nonnull %6) #15
  call void @llvm.memset.p0.i64(ptr noundef nonnull align 16 dereferenceable(128) %6, i8 0, i64 128, i1 false)
  call void @llvm.lifetime.start.p0(i64 32, ptr nonnull %7) #15
  %37 = load ptr, ptr %27, align 8, !tbaa !25
  %38 = call i32 (ptr, i64, ptr, ...) @snprintf(ptr noundef nonnull dereferenceable(1) %6, i64 noundef 128, ptr noundef nonnull @.str.504, ptr noundef %37) #15
  %39 = load ptr, ptr %26, align 8, !tbaa !24
  %40 = getelementptr inbounds nuw i8, ptr %39, i64 12
  %41 = load i32, ptr %40, align 4, !tbaa !27
  %42 = and i32 %41, 8192
  %.not51 = icmp eq i32 %42, 0
  br i1 %.not51, label %.loopexit, label %43

43:                                               ; preds = %35
  %44 = getelementptr inbounds nuw i8, ptr %39, i64 40
  %45 = load ptr, ptr %44, align 8, !tbaa !19
  %46 = load ptr, ptr %45, align 8, !tbaa !22
  %.not5261 = icmp eq ptr %46, null
  br i1 %.not5261, label %.loopexit, label %.lr.ph64

.lr.ph64:                                         ; preds = %43, %.lr.ph64
  %indvars.iv66 = phi i64 [ %indvars.iv.next67, %.lr.ph64 ], [ 0, %43 ]
  %47 = phi ptr [ %50, %.lr.ph64 ], [ %46, %43 ]
  %48 = call i64 (ptr, i64, ptr, ...) @av_strlcatf(ptr noundef nonnull %6, i64 noundef 128, ptr noundef nonnull @.str.505, ptr noundef nonnull %47) #15
  %indvars.iv.next67 = add nuw nsw i64 %indvars.iv66, 1
  %49 = getelementptr inbounds nuw ptr, ptr %45, i64 %indvars.iv.next67
  %50 = load ptr, ptr %49, align 8, !tbaa !22
  %.not52 = icmp eq ptr %50, null
  br i1 %.not52, label %.loopexit, label %.lr.ph64, !llvm.loop !28

.loopexit:                                        ; preds = %.lr.ph64, %43, %35
  %51 = load i32, ptr %8, align 8, !tbaa !12
  switch i32 %51, label %72 [
    i32 2, label %52
    i32 3, label %55
    i32 4, label %59
    i32 5, label %63
    i32 6, label %68
  ]

52:                                               ; preds = %.loopexit
  %53 = getelementptr inbounds nuw i8, ptr %31, i64 64
  %54 = load ptr, ptr %53, align 8, !tbaa !19
  br label %73

55:                                               ; preds = %.loopexit
  %56 = getelementptr inbounds nuw i8, ptr %31, i64 64
  %57 = load i32, ptr %56, align 8, !tbaa !19
  %58 = call i32 (ptr, i64, ptr, ...) @snprintf(ptr noundef nonnull dereferenceable(1) %7, i64 noundef 32, ptr noundef nonnull @.str.506, i32 noundef %57) #15
  br label %73

59:                                               ; preds = %.loopexit
  %60 = getelementptr inbounds nuw i8, ptr %31, i64 64
  %61 = load i64, ptr %60, align 8, !tbaa !19
  %62 = call i32 (ptr, i64, ptr, ...) @snprintf(ptr noundef nonnull dereferenceable(1) %7, i64 noundef 32, ptr noundef nonnull @.str.507, i64 noundef %61) #15
  br label %73

63:                                               ; preds = %.loopexit
  %64 = getelementptr inbounds nuw i8, ptr %31, i64 64
  %65 = load float, ptr %64, align 8, !tbaa !19
  %66 = fpext nsz float %65 to double
  %67 = call i32 (ptr, i64, ptr, ...) @snprintf(ptr noundef nonnull dereferenceable(1) %7, i64 noundef 32, ptr noundef nonnull @.str.508, double noundef %66) #15
  br label %73

68:                                               ; preds = %.loopexit
  %69 = getelementptr inbounds nuw i8, ptr %31, i64 64
  %70 = load double, ptr %69, align 8, !tbaa !19
  %71 = call i32 (ptr, i64, ptr, ...) @snprintf(ptr noundef nonnull dereferenceable(1) %7, i64 noundef 32, ptr noundef nonnull @.str.508, double noundef %70) #15
  br label %73

72:                                               ; preds = %.loopexit
  call void (ptr, i32, ptr, ...) @av_log(ptr noundef null, i32 noundef 0, ptr noundef nonnull @.str, ptr noundef nonnull @.str.509, ptr noundef nonnull @.str.2, i32 noundef 218) #15
  call void @abort() #16
  unreachable

73:                                               ; preds = %68, %63, %59, %55, %52
  %.042 = phi ptr [ %7, %68 ], [ %7, %63 ], [ %7, %59 ], [ %7, %55 ], [ %54, %52 ]
  %74 = getelementptr inbounds nuw i8, ptr %4, i64 8
  %75 = load i32, ptr %74, align 8, !tbaa !29
  %76 = load ptr, ptr %26, align 8, !tbaa !24
  %77 = load ptr, ptr %76, align 8, !tbaa !25
  %78 = load i8, ptr %36, align 1, !tbaa !19
  %.not53 = icmp eq i8 %78, 0
  %79 = select i1 %.not53, ptr @.str.68, ptr @.str.511
  call void (ptr, i32, ptr, ...) @av_log(ptr noundef %0, i32 noundef 24, ptr noundef nonnull @.str.510, ptr noundef nonnull %6, i32 noundef %75, ptr noundef %77, ptr noundef nonnull %79, ptr noundef nonnull %36, ptr noundef %.042) #15
  call void @llvm.lifetime.end.p0(i64 32, ptr nonnull %7) #15
  call void @llvm.lifetime.end.p0(i64 128, ptr nonnull %6) #15
  br label %._crit_edge.thread

._crit_edge.thread:                               ; preds = %11, %13, %73, %25, %._crit_edge
  %.043.lcssa72 = phi i32 [ %spec.select, %73 ], [ %spec.select, %25 ], [ %spec.select, %._crit_edge ], [ -1, %13 ], [ -1, %11 ]
  %80 = add nsw i32 %.043.lcssa72, 1
  ret i32 %80
}